; Function Attrs: nounwind uwtable
define noundef i32 @DSA_set_method(ptr noundef %0, ptr noundef %1) local_unnamed_addr #0 {
  %3 = getelementptr inbounds nuw i8, ptr %0, i64 160
  %4 = load ptr, ptr %3, align 8, !tbaa !23
  %5 = getelementptr inbounds nuw i8, ptr %4, i64 56
  %6 = load ptr, ptr %5, align 8, !tbaa !24
  %.not = icmp eq ptr %6, null
  br i1 %.not, label %9, label %7

7:                                                ; preds = %2
  %8 = tail call i32 %6(ptr noundef nonnull %0) #7
  br label %9

9:                                                ; preds = %7, %2
  %10 = getelementptr inbounds nuw i8, ptr %0, i64 168
  %11 = load ptr, ptr %10, align 8, !tbaa !22
  %12 = tail call i32 @ENGINE_finish(ptr noundef %11) #7
  store ptr null, ptr %10, align 8, !tbaa !22
  store ptr %1, ptr %3, align 8, !tbaa !23
  %13 = getelementptr inbounds nuw i8, ptr %1, i64 48
  %14 = load ptr, ptr %13, align 8, !tbaa !26
  %.not12 = icmp eq ptr %14, null
  br i1 %.not12, label %17, label %15

15:                                               ; preds = %9
  %16 = tail call i32 %14(ptr noundef nonnull %0) #7
  br label %17

17:                                               ; preds = %15, %9
  ret i32 1
}